target datalayout = "e-m:e-p270:32:32-p271:32:32-p272:64:64-i64:64-i128:128-f80:128-n8:16:32:64-S128"
target triple = "x86_64-unknown-linux-gnu"

%"struct.node::AssertionInfo" = type { ptr, ptr, ptr }
%"class.v8::Local" = type { %"class.v8::LocalBase" }
%"class.v8::LocalBase" = type { %"class.v8::IndirectHandleBase" }
%"class.v8::IndirectHandleBase" = type { ptr }
%"class.v8::Local.4" = type { %"class.v8::LocalBase.5" }
%"class.v8::LocalBase.5" = type { %"class.v8::IndirectHandleBase" }
%"struct.std::pair.415" = type { ptr, i64 }
%"class.v8::Local.398" = type { %"class.v8::LocalBase.399" }
%"class.v8::LocalBase.399" = type { %"class.v8::IndirectHandleBase" }

@_ZZN4node6Buffer12_GLOBAL__N_112_GLOBAL__N_122DecomposeBufferToPartsEN2v85LocalINS3_5ValueEEEE4args = internal constant %"struct.node::AssertionInfo" { ptr @.str.200, ptr @.str.110, ptr @.str.201 }, align 8

; Function Attrs: mustprogress nounwind uwtable
define linkonce_odr dso_local void @_ZNSt4pairIPvmEC2IRS0_RmTnNSt9enable_ifIXaaclsr5_PCCPE22_MoveConstructiblePairIT_T0_EEclsr5_PCCPE30_ImplicitlyMoveConvertiblePairIS6_S7_EEEbE4typeELb1EEEOS6_OS7_(ptr noundef nonnull align 8 dereferenceable(16) %this, ptr noundef nonnull align 8 dereferenceable(8) %__x, ptr noundef nonnull align 8 dereferenceable(8) %__y) unnamed_addr #4 comdat align 2 {
entry:
  %this.addr = alloca ptr, align 8
  %__x.addr = alloca ptr, align 8
  %__y.addr = alloca ptr, align 8
  store ptr %this, ptr %this.addr, align 8
  store ptr %__x, ptr %__x.addr, align 8
  store ptr %__y, ptr %__y.addr, align 8
  %this1 = load ptr, ptr %this.addr, align 8
  %first = getelementptr inbounds %"struct.std::pair.415", ptr %this1, i32 0, i32 0
  %0 = load ptr, ptr %__x.addr, align 8
  %1 = load ptr, ptr %0, align 8
  store ptr %1, ptr %first, align 8
  %second = getelementptr inbounds %"struct.std::pair.415", ptr %this1, i32 0, i32 1
  %2 = load ptr, ptr %__y.addr, align 8
  %3 = load i64, ptr %2, align 8
  store i64 %3, ptr %second, align 8
  ret void
}

; Function Attrs: mustprogress nounwind uwtable
define internal { ptr, i64 } @_ZN4node6Buffer12_GLOBAL__N_112_GLOBAL__N_122DecomposeBufferToPartsEN2v85LocalINS3_5ValueEEE(ptr %buffer.coerce) #4 {
entry:
  %slot.addr.i92 = alloca ptr, align 8
  %slot.addr.i91 = alloca ptr, align 8
  %this.addr.i.i86 = alloca ptr, align 8
  %this.addr.i87 = alloca ptr, align 8
  %this.addr.i.i82 = alloca ptr, align 8
  %this.addr.i83 = alloca ptr, align 8
  %slot.addr.i81 = alloca ptr, align 8
  %slot.addr.i80 = alloca ptr, align 8
  %this.addr.i.i75 = alloca ptr, align 8
  %this.addr.i76 = alloca ptr, align 8
  %this.addr.i.i71 = alloca ptr, align 8
  %this.addr.i72 = alloca ptr, align 8
  %this.addr.i68 = alloca ptr, align 8
  %other.addr.i69 = alloca ptr, align 8
  %this.addr.i65 = alloca ptr, align 8
  %other.addr.i66 = alloca ptr, align 8
  %retval.i62 = alloca %"class.v8::Local.398", align 8
  %that.i63 = alloca %"class.v8::Local", align 8
  %ref.tmp.i64 = alloca %"class.v8::LocalBase.399", align 8
  %this.addr.i60 = alloca ptr, align 8
  %other.addr.i = alloca ptr, align 8
  %this.addr.i.i57 = alloca ptr, align 8
  %other.addr.i.i = alloca ptr, align 8
  %retval.i58 = alloca %"class.v8::Local.4", align 8
  %that.i = alloca %"class.v8::Local", align 8
  %ref.tmp.i = alloca %"class.v8::LocalBase.5", align 8
  %this.addr.i54 = alloca ptr, align 8
  %this.addr.i51 = alloca ptr, align 8
  %retval.i46 = alloca %"class.v8::Local.398", align 8
  %this.addr.i47 = alloca ptr, align 8
  %agg.tmp.i48 = alloca %"class.v8::Local", align 8
  %retval.i = alloca %"class.v8::Local.4", align 8
  %this.addr.i43 = alloca ptr, align 8
  %agg.tmp.i = alloca %"class.v8::Local", align 8
  %slot.addr.i42 = alloca ptr, align 8
  %slot.addr.i = alloca ptr, align 8
  %this.addr.i.i37 = alloca ptr, align 8
  %this.addr.i38 = alloca ptr, align 8
  %this.addr.i.i = alloca ptr, align 8
  %this.addr.i35 = alloca ptr, align 8
  %this.addr.i32 = alloca ptr, align 8
  %this.addr.i29 = alloca ptr, align 8
  %this.addr.i26 = alloca ptr, align 8
  %this.addr.i = alloca ptr, align 8
  %retval = alloca %"struct.std::pair.415", align 8
  %buffer = alloca %"class.v8::Local", align 8
  %pointer = alloca ptr, align 8
  %byte_length = alloca i64, align 8
  %ab = alloca %"class.v8::Local.4", align 8
  %ab15 = alloca %"class.v8::Local.398", align 8
  %coerce.dive = getelementptr inbounds %"class.v8::Local", ptr %buffer, i32 0, i32 0
  %coerce.dive1 = getelementptr inbounds %"class.v8::LocalBase", ptr %coerce.dive, i32 0, i32 0
  %coerce.dive2 = getelementptr inbounds %"class.v8::IndirectHandleBase", ptr %coerce.dive1, i32 0, i32 0
  store ptr %buffer.coerce, ptr %coerce.dive2, align 8
  store ptr %buffer, ptr %this.addr.i26, align 8
  %this1.i27 = load ptr, ptr %this.addr.i26, align 8
  store ptr %this1.i27, ptr %this.addr.i83, align 8
  %this1.i84 = load ptr, ptr %this.addr.i83, align 8
  store ptr %this1.i84, ptr %this.addr.i.i82, align 8
  %this1.i.i85 = load ptr, ptr %this.addr.i.i82, align 8
  %0 = load ptr, ptr %this1.i.i85, align 8
  store ptr %0, ptr %slot.addr.i92, align 8
  %1 = load ptr, ptr %slot.addr.i92, align 8
  %call3 = call noundef zeroext i1 @_ZNK2v85Value13IsArrayBufferEv(ptr noundef nonnull align 1 dereferenceable(1) %1)
  br i1 %call3, label %if.then, label %if.else

if.then:                                          ; preds = %entry
  store ptr %buffer, ptr %this.addr.i43, align 8
  %this1.i44 = load ptr, ptr %this.addr.i43, align 8
  call void @llvm.memcpy.p0.p0.i64(ptr align 8 %agg.tmp.i, ptr align 8 %this1.i44, i64 8, i1 false)
  %2 = load ptr, ptr %agg.tmp.i, align 8
  store ptr %2, ptr %that.i, align 8
  store ptr %ref.tmp.i, ptr %this.addr.i60, align 8
  store ptr %that.i, ptr %other.addr.i, align 8
  %this1.i61 = load ptr, ptr %this.addr.i60, align 8
  %3 = load ptr, ptr %other.addr.i, align 8
  call void @llvm.memcpy.p0.p0.i64(ptr align 8 %this1.i61, ptr align 8 %3, i64 8, i1 false)
  store ptr %retval.i58, ptr %this.addr.i.i57, align 8
  store ptr %ref.tmp.i, ptr %other.addr.i.i, align 8
  %this1.i.i59 = load ptr, ptr %this.addr.i.i57, align 8
  %4 = load ptr, ptr %other.addr.i.i, align 8
  call void @llvm.memcpy.p0.p0.i64(ptr align 8 %this1.i.i59, ptr align 8 %4, i64 8, i1 false)
  %5 = load ptr, ptr %retval.i58, align 8
  store ptr %5, ptr %retval.i, align 8
  %6 = load ptr, ptr %retval.i, align 8
  %coerce.dive5 = getelementptr inbounds %"class.v8::Local.4", ptr %ab, i32 0, i32 0
  %coerce.dive6 = getelementptr inbounds %"class.v8::LocalBase.5", ptr %coerce.dive5, i32 0, i32 0
  %coerce.dive7 = getelementptr inbounds %"class.v8::IndirectHandleBase", ptr %coerce.dive6, i32 0, i32 0
  store ptr %6, ptr %coerce.dive7, align 8
  store ptr %ab, ptr %this.addr.i32, align 8
  %this1.i33 = load ptr, ptr %this.addr.i32, align 8
  store ptr %this1.i33, ptr %this.addr.i35, align 8
  %this1.i36 = load ptr, ptr %this.addr.i35, align 8
  store ptr %this1.i36, ptr %this.addr.i.i, align 8
  %this1.i.i = load ptr, ptr %this.addr.i.i, align 8
  %7 = load ptr, ptr %this1.i.i, align 8
  store ptr %7, ptr %slot.addr.i42, align 8
  %8 = load ptr, ptr %slot.addr.i42, align 8
  %call9 = call noundef ptr @_ZNK2v811ArrayBuffer4DataEv(ptr noundef nonnull align 1 dereferenceable(1) %8)
  store ptr %call9, ptr %pointer, align 8
  store ptr %ab, ptr %this.addr.i29, align 8
  %this1.i30 = load ptr, ptr %this.addr.i29, align 8
  store ptr %this1.i30, ptr %this.addr.i38, align 8
  %this1.i39 = load ptr, ptr %this.addr.i38, align 8
  store ptr %this1.i39, ptr %this.addr.i.i37, align 8
  %this1.i.i40 = load ptr, ptr %this.addr.i.i37, align 8
  %9 = load ptr, ptr %this1.i.i40, align 8
  store ptr %9, ptr %slot.addr.i, align 8
  %10 = load ptr, ptr %slot.addr.i, align 8
  %call11 = call noundef i64 @_ZNK2v811ArrayBuffer10ByteLengthEv(ptr noundef nonnull align 1 dereferenceable(1) %10)
  store i64 %call11, ptr %byte_length, align 8
  br label %if.end25

if.else:                                          ; preds = %entry
  store ptr %buffer, ptr %this.addr.i, align 8
  %this1.i = load ptr, ptr %this.addr.i, align 8
  store ptr %this1.i, ptr %this.addr.i87, align 8
  %this1.i88 = load ptr, ptr %this.addr.i87, align 8
  store ptr %this1.i88, ptr %this.addr.i.i86, align 8
  %this1.i.i89 = load ptr, ptr %this.addr.i.i86, align 8
  %11 = load ptr, ptr %this1.i.i89, align 8
  store ptr %11, ptr %slot.addr.i91, align 8
  %12 = load ptr, ptr %slot.addr.i91, align 8
  %call13 = call noundef zeroext i1 @_ZNK2v85Value19IsSharedArrayBufferEv(ptr noundef nonnull align 1 dereferenceable(1) %12)
  br i1 %call13, label %if.then14, label %if.else24

if.then14:                                        ; preds = %if.else
  store ptr %buffer, ptr %this.addr.i47, align 8
  %this1.i49 = load ptr, ptr %this.addr.i47, align 8
  call void @llvm.memcpy.p0.p0.i64(ptr align 8 %agg.tmp.i48, ptr align 8 %this1.i49, i64 8, i1 false)
  %13 = load ptr, ptr %agg.tmp.i48, align 8
  store ptr %13, ptr %that.i63, align 8
  store ptr %ref.tmp.i64, ptr %this.addr.i65, align 8
  store ptr %that.i63, ptr %other.addr.i66, align 8
  %this1.i67 = load ptr, ptr %this.addr.i65, align 8
  %14 = load ptr, ptr %other.addr.i66, align 8
  call void @llvm.memcpy.p0.p0.i64(ptr align 8 %this1.i67, ptr align 8 %14, i64 8, i1 false)
  store ptr %retval.i62, ptr %this.addr.i68, align 8
  store ptr %ref.tmp.i64, ptr %other.addr.i69, align 8
  %this1.i70 = load ptr, ptr %this.addr.i68, align 8
  %15 = load ptr, ptr %other.addr.i69, align 8
  call void @llvm.memcpy.p0.p0.i64(ptr align 8 %this1.i70, ptr align 8 %15, i64 8, i1 false)
  %16 = load ptr, ptr %retval.i62, align 8
  store ptr %16, ptr %retval.i46, align 8
  %17 = load ptr, ptr %retval.i46, align 8
  %coerce.dive17 = getelementptr inbounds %"class.v8::Local.398", ptr %ab15, i32 0, i32 0
  %coerce.dive18 = getelementptr inbounds %"class.v8::LocalBase.399", ptr %coerce.dive17, i32 0, i32 0
  %coerce.dive19 = getelementptr inbounds %"class.v8::IndirectHandleBase", ptr %coerce.dive18, i32 0, i32 0
  store ptr %17, ptr %coerce.dive19, align 8
  store ptr %ab15, ptr %this.addr.i54, align 8
  %this1.i55 = load ptr, ptr %this.addr.i54, align 8
  store ptr %this1.i55, ptr %this.addr.i72, align 8
  %this1.i73 = load ptr, ptr %this.addr.i72, align 8
  store ptr %this1.i73, ptr %this.addr.i.i71, align 8
  %this1.i.i74 = load ptr, ptr %this.addr.i.i71, align 8
  %18 = load ptr, ptr %this1.i.i74, align 8
  store ptr %18, ptr %slot.addr.i81, align 8
  %19 = load ptr, ptr %slot.addr.i81, align 8
  %call21 = call noundef ptr @_ZNK2v817SharedArrayBuffer4DataEv(ptr noundef nonnull align 1 dereferenceable(1) %19)
  store ptr %call21, ptr %pointer, align 8
  store ptr %ab15, ptr %this.addr.i51, align 8
  %this1.i52 = load ptr, ptr %this.addr.i51, align 8
  store ptr %this1.i52, ptr %this.addr.i76, align 8
  %this1.i77 = load ptr, ptr %this.addr.i76, align 8
  store ptr %this1.i77, ptr %this.addr.i.i75, align 8
  %this1.i.i78 = load ptr, ptr %this.addr.i.i75, align 8
  %20 = load ptr, ptr %this1.i.i78, align 8
  store ptr %20, ptr %slot.addr.i80, align 8
  %21 = load ptr, ptr %slot.addr.i80, align 8
  %call23 = call noundef i64 @_ZNK2v817SharedArrayBuffer10ByteLengthEv(ptr noundef nonnull align 1 dereferenceable(1) %21)
  store i64 %call23, ptr %byte_length, align 8
  br label %if.end

if.else24:                                        ; preds = %if.else
  br label %do.body

do.body:                                          ; preds = %if.else24
  call void @_ZN4node6AssertERKNS_13AssertionInfoE(ptr noundef nonnull align 8 dereferenceable(24) @_ZZN4node6Buffer12_GLOBAL__N_112_GLOBAL__N_122DecomposeBufferToPartsEN2v85LocalINS3_5ValueEEEE4args)
  call void @abort() #15
  unreachable

do.end:                                           ; No predecessors!
  br label %if.end

if.end:                                           ; preds = %do.end, %if.then14
  br label %if.end25

if.end25:                                         ; preds = %if.end, %if.then
  call void @_ZNSt4pairIPvmEC2IRS0_RmTnNSt9enable_ifIXaaclsr5_PCCPE22_MoveConstructiblePairIT_T0_EEclsr5_PCCPE30_ImplicitlyMoveConvertiblePairIS6_S7_EEEbE4typeELb1EEEOS6_OS7_(ptr noundef nonnull align 8 dereferenceable(16) %retval, ptr noundef nonnull align 8 dereferenceable(8) %pointer, ptr noundef nonnull align 8 dereferenceable(8) %byte_length)
  %22 = load { ptr, i64 }, ptr %retval, align 8
  ret { ptr, i64 } %22
}