; Function Attrs: mustprogress nounwind uwtable
define internal fastcc { ptr, i64 } @_ZN4node6Buffer12_GLOBAL__N_112_GLOBAL__N_122DecomposeBufferToPartsEN2v85LocalINS3_5ValueEEE(ptr nonnull %buffer.coerce) unnamed_addr #3 {
entry:
  %call3 = tail call noundef zeroext i1 @_ZNK2v85Value13IsArrayBufferEv(ptr noundef nonnull align 1 dereferenceable(1) %buffer.coerce) #22
  br i1 %call3, label %if.then, label %if.else

if.then:                                          ; preds = %entry
  %call9 = tail call noundef ptr @_ZNK2v811ArrayBuffer4DataEv(ptr noundef nonnull align 1 dereferenceable(1) %buffer.coerce) #22
  %call11 = tail call noundef i64 @_ZNK2v811ArrayBuffer10ByteLengthEv(ptr noundef nonnull align 1 dereferenceable(1) %buffer.coerce) #22
  br label %if.end25

if.else:                                          ; preds = %entry
  %call13 = tail call noundef zeroext i1 @_ZNK2v85Value19IsSharedArrayBufferEv(ptr noundef nonnull align 1 dereferenceable(1) %buffer.coerce) #22
  br i1 %call13, label %if.then14, label %do.body

if.then14:                                        ; preds = %if.else
  %call21 = tail call noundef ptr @_ZNK2v817SharedArrayBuffer4DataEv(ptr noundef nonnull align 1 dereferenceable(1) %buffer.coerce) #22
  %call23 = tail call noundef i64 @_ZNK2v817SharedArrayBuffer10ByteLengthEv(ptr noundef nonnull align 1 dereferenceable(1) %buffer.coerce) #22
  br label %if.end25

do.body:                                          ; preds = %if.else
  tail call void @_ZN4node6AssertERKNS_13AssertionInfoE(ptr noundef nonnull align 8 dereferenceable(24) @_ZZN4node6Buffer12_GLOBAL__N_112_GLOBAL__N_122DecomposeBufferToPartsEN2v85LocalINS3_5ValueEEEE4args) #22
  tail call void @abort() #23
  unreachable

if.end25:                                         ; preds = %if.then14, %if.then
  %pointer.0 = phi ptr [ %call9, %if.then ], [ %call21, %if.then14 ]
  %storemerge = phi i64 [ %call11, %if.then ], [ %call23, %if.then14 ]
  %.fca.0.insert = insertvalue { ptr, i64 } poison, ptr %pointer.0, 0
  %.fca.1.insert = insertvalue { ptr, i64 } %.fca.0.insert, i64 %storemerge, 1
  ret { ptr, i64 } %.fca.1.insert
}